Certificate:
    Data:
        Version: 3 (0x2)
        Serial Number: 306714175 (0x1248163f)
        Signature Algorithm: sha384WithRSAEncryption
        Issuer: CN=CA1_sha384_4096_65537_v3_ca
        Validity
            Not Before: Nov  8 10:25:23 2024 GMT
            Not After : Nov  3 10:25:23 2044 GMT
        Subject: CN=SRK2_sha384_4096_65537_v3_usr
        Subject Public Key Info:
            Public Key Algorithm: rsaEncryption
                RSA Public-Key: (4096 bit)
                Modulus:
                    00:da:9e:ea:a4:6f:bd:d6:ca:1a:e8:b4:8d:2e:70:
                    60:88:8e:1d:69:b5:a0:97:07:75:4e:5f:5b:c6:43:
                    4d:db:df:f9:85:dd:00:e3:8d:ec:ed:e9:3f:cc:72:
                    17:fe:c4:fc:64:00:c3:31:04:8c:f4:bf:28:9c:5a:
                    95:23:bd:19:8f:57:a8:51:44:48:2f:79:59:b9:24:
                    1f:97:db:d8:2f:d0:7e:85:61:37:97:75:5a:d4:20:
                    5a:ab:82:97:85:bd:08:dd:4d:51:31:26:69:fd:94:
                    73:e6:a2:9b:79:f1:61:b4:57:e0:0f:5b:f1:7e:68:
                    d1:0a:6c:c7:eb:57:2b:7e:31:29:2e:2d:67:bb:d5:
                    31:fe:e4:2a:6f:20:4f:a3:20:28:83:9f:79:15:63:
                    5e:9b:32:56:d0:81:27:d0:ab:9d:1a:dd:0d:72:92:
                    28:b5:3f:43:10:b9:d9:63:07:e6:58:4a:45:e9:42:
                    8e:99:83:14:8e:db:a7:16:5c:a9:9f:0d:34:d8:96:
                    59:8c:89:61:70:47:c6:2b:b0:e6:ca:af:87:1e:de:
                    16:ed:e1:44:53:88:34:6f:00:3b:70:a4:ba:53:42:
                    cc:00:86:d0:84:31:96:fd:cf:27:1a:60:58:5b:cd:
                    4d:eb:43:d8:8d:fe:b3:4e:6e:1d:b8:50:1d:d4:dd:
                    54:b7:12:27:f5:9e:50:95:c2:3d:2e:ae:12:ed:42:
                    9a:75:2f:bb:c0:89:4c:8c:ff:24:b3:85:91:e0:00:
                    8b:26:d7:5d:a4:2f:1a:b1:64:52:18:99:7c:44:2e:
                    b6:2e:c3:b6:f2:98:c7:ca:37:95:88:52:76:b5:0a:
                    af:60:c9:d7:2c:bb:35:11:c5:cc:a3:ac:67:e9:6b:
                    b6:1c:15:e9:22:67:1a:b9:2f:73:a6:d6:ea:98:45:
                    3c:d2:d2:7b:8c:b0:52:08:f6:05:89:80:8e:8b:7f:
                    fa:b1:2f:1c:ce:80:1c:72:e1:27:76:30:15:93:0d:
                    a3:70:5f:06:3c:cd:3b:a8:6d:06:34:b7:82:62:d4:
                    f2:76:d9:7e:35:ef:95:e9:f9:1a:9c:49:49:2a:ef:
                    b2:75:28:ef:82:85:75:bd:f5:34:ae:d7:07:f7:fc:
                    7f:61:30:81:d8:88:8d:ad:40:60:83:39:da:94:a6:
                    0a:ad:7b:17:92:c5:7b:6e:ae:3d:16:b6:8f:02:7e:
                    ea:71:6e:90:3c:8b:67:2d:9e:c4:de:e7:40:9e:46:
                    f3:8f:71:86:51:2b:e9:fc:d6:ea:22:90:b7:01:f9:
                    d4:50:46:34:cb:55:6d:02:ac:39:0b:a6:6d:4d:3f:
                    c1:eb:37:f3:1f:59:7b:c1:d2:ed:50:5d:51:5b:49:
                    93:4a:af
                Exponent: 65537 (0x10001)
        X509v3 extensions:
            X509v3 Basic Constraints: 
                CA:FALSE
            Netscape Comment: 
                OpenSSL Generated Certificate
            X509v3 Subject Key Identifier: 
                9E:15:88:82:72:3D:E5:47:48:86:5B:EE:5A:30:6F:31:0E:52:3A:8B
            X509v3 Authority Key Identifier: 
                keyid:A8:A0:05:4A:37:5B:8B:EC:5C:46:69:FE:39:D5:50:60:89:C4:5A:53

    Signature Algorithm: sha384WithRSAEncryption
         5e:b4:41:49:09:5b:f9:18:12:ab:1f:44:23:ef:a0:16:4a:30:
         21:30:89:ec:53:30:d0:67:89:c9:9b:24:04:ef:3d:96:e4:c3:
         96:d3:d2:1a:0e:10:7d:59:39:cb:0f:74:36:3c:d4:8b:1f:f1:
         ea:66:08:65:e9:f0:b3:c2:cf:a9:12:1f:9f:11:2d:ca:ea:e2:
         7b:aa:9d:9c:f8:5a:4f:e4:96:7f:d3:89:0a:78:0b:92:01:a0:
         55:bb:c4:7c:b8:22:a7:97:f7:e3:03:4a:bb:d3:da:ef:c8:5e:
         c5:8c:7e:02:51:ae:e8:b7:17:30:05:4c:e9:fd:7a:6d:1c:1f:
         58:93:45:87:5c:19:82:89:86:ab:65:90:c1:c5:d0:83:af:94:
         60:27:5d:0d:fd:b3:4c:ba:fd:1b:7d:2a:96:b4:8d:d0:7a:e9:
         6d:c7:78:25:88:f1:bd:7a:0f:52:7f:80:4c:6e:2b:e5:a5:39:
         4d:98:e5:7c:67:6a:2a:fa:87:16:0f:0c:7d:57:83:82:83:01:
         9a:eb:be:03:24:4b:5c:d5:ad:bf:cd:39:11:88:cb:87:a1:b9:
         bd:84:b7:74:ca:9c:66:2e:55:0f:92:75:e6:ac:e2:a0:98:cf:
         a6:01:ef:80:59:73:1b:01:b1:41:a7:f6:a4:ef:b3:d0:20:f5:
         4e:8b:23:5b:9e:c2:7d:43:5d:80:3e:d3:76:1b:1d:7f:27:7c:
         4c:4f:40:39:fa:7e:40:d8:82:6d:6a:22:7c:72:45:3d:10:2e:
         17:c5:f0:d9:58:94:2b:b5:3b:c3:ab:99:f0:83:12:61:cf:b2:
         4e:81:dd:06:65:b3:04:f1:ab:f5:6e:45:fd:8d:24:11:af:a1:
         f9:0b:01:cc:fa:0d:43:12:a9:8f:d8:e9:22:65:54:71:49:db:
         24:02:1a:b4:0e:c7:b6:fa:b1:e5:2e:a3:54:ed:eb:9c:ae:19:
         6a:9a:3a:65:bb:92:71:74:c3:ed:81:3c:f6:d0:7c:3a:6c:d0:
         e3:2c:3b:8b:4d:74:35:84:e8:2b:78:7c:1e:96:2e:6c:0c:3a:
         42:49:40:83:5d:de:fc:0a:13:19:1c:25:c2:0b:e4:6f:14:c8:
         1e:5f:16:76:30:ec:bc:54:82:69:fd:1a:3b:0f:21:19:f5:6c:
         c2:0b:d7:6b:12:49:32:3b:7f:86:df:ac:e7:de:8e:66:15:92:
         e0:c9:11:40:ee:af:16:7c:4b:dc:de:e5:55:1e:3c:39:74:6c:
         9b:ef:26:59:c6:0b:fa:7e:af:cd:da:62:25:17:97:65:8f:b1:
         ae:36:ff:6c:a0:da:8c:f8:6d:fc:20:52:5b:ba:97:6f:d5:53:
         75:64:db:68:63:66:13:41
-----BEGIN CERTIFICATE-----
MIIFRzCCAy+gAwIBAgIEEkgWPzANBgkqhkiG9w0BAQwFADAmMSQwIgYDVQQDFBtD
QTFfc2hhMzg0XzQwOTZfNjU1MzdfdjNfY2EwHhcNMjQxMTA4MTAyNTIzWhcNNDQx
MTAzMTAyNTIzWjAoMSYwJAYDVQQDDB1TUksyX3NoYTM4NF80MDk2XzY1NTM3X3Yz
X3VzcjCCAiIwDQYJKoZIhvcNAQEBBQADggIPADCCAgoCggIBANqe6qRvvdbKGui0
jS5wYIiOHWm1oJcHdU5fW8ZDTdvf+YXdAOON7O3pP8xyF/7E/GQAwzEEjPS/KJxa
lSO9GY9XqFFESC95WbkkH5fb2C/QfoVhN5d1WtQgWquCl4W9CN1NUTEmaf2Uc+ai
m3nxYbRX4A9b8X5o0Qpsx+tXK34xKS4tZ7vVMf7kKm8gT6MgKIOfeRVjXpsyVtCB
J9CrnRrdDXKSKLU/QxC52WMH5lhKRelCjpmDFI7bpxZcqZ8NNNiWWYyJYXBHxiuw
5sqvhx7eFu3hRFOING8AO3CkulNCzACG0IQxlv3PJxpgWFvNTetD2I3+s05uHbhQ
HdTdVLcSJ/WeUJXCPS6uEu1CmnUvu8CJTIz/JLOFkeAAiybXXaQvGrFkUhiZfEQu
ti7DtvKYx8o3lYhSdrUKr2DJ1yy7NRHFzKOsZ+lrthwV6SJnGrkvc6bW6phFPNLS
e4ywUgj2BYmAjot/+rEvHM6AHHLhJ3YwFZMNo3BfBjzNO6htBjS3gmLU8nbZfjXv
len5GpxJSSrvsnUo74KFdb31NK7XB/f8f2EwgdiIja1AYIM52pSmCq17F5LFe26u
PRa2jwJ+6nFukDyLZy2exN7nQJ5G849xhlEr6fzW6iKQtwH51FBGNMtVbQKsOQum
bU0/wes38x9Ze8HS7VBdUVtJk0qvAgMBAAGjezB5MAkGA1UdEwQCMAAwLAYJYIZI
AYb4QgENBB8WHU9wZW5TU0wgR2VuZXJhdGVkIENlcnRpZmljYXRlMB0GA1UdDgQW
BBSeFYiCcj3lR0iGW+5aMG8xDlI6izAfBgNVHSMEGDAWgBSooAVKN1uL7FxGaf45
1VBgicRaUzANBgkqhkiG9w0BAQwFAAOCAgEAXrRBSQlb+RgSqx9EI++gFkowITCJ
7FMw0GeJyZskBO89luTDltPSGg4QfVk5yw90NjzUix/x6mYIZenws8LPqRIfnxEt
yurie6qdnPhaT+SWf9OJCngLkgGgVbvEfLgip5f34wNKu9Pa78hexYx+AlGu6LcX
MAVM6f16bRwfWJNFh1wZgomGq2WQwcXQg6+UYCddDf2zTLr9G30qlrSN0Hrpbcd4
JYjxvXoPUn+ATG4r5aU5TZjlfGdqKvqHFg8MfVeDgoMBmuu+AyRLXNWtv805EYjL
h6G5vYS3dMqcZi5VD5J15qzioJjPpgHvgFlzGwGxQaf2pO+z0CD1TosjW57CfUNd
gD7Tdhsdfyd8TE9AOfp+QNiCbWoifHJFPRAuF8Xw2ViUK7U7w6uZ8IMSYc+yToHd
BmWzBPGr9W5F/Y0kEa+h+QsBzPoNQxKpj9jpImVUcUnbJAIatA7Htvqx5S6jVO3r
nK4Zapo6ZbuScXTD7YE89tB8OmzQ4yw7i010NYToK3h8HpYubAw6QklAg13e/AoT
GRwlwgvkbxTIHl8WdjDsvFSCaf0aOw8hGfVswgvXaxJJMjt/ht+s596OZhWS4MkR
QO6vFnxL3N7lVR48OXRsm+8mWcYL+n6vzdpiJReXZY+xrjb/bKDajPht/CBSW7qX
b9VTdWTbaGNmE0E=
-----END CERTIFICATE-----
