Certificate:
    Data:
        Version: 3 (0x2)
        Serial Number: 306714174 (0x1248163e)
        Signature Algorithm: sha384WithRSAEncryption
        Issuer: CN=CA1_sha384_4096_65537_v3_ca
        Validity
            Not Before: Nov  8 10:25:23 2024 GMT
            Not After : Nov  3 10:25:23 2044 GMT
        Subject: CN=SRK1_sha384_4096_65537_v3_usr
        Subject Public Key Info:
            Public Key Algorithm: rsaEncryption
                RSA Public-Key: (4096 bit)
                Modulus:
                    00:f8:33:66:cf:2b:c8:10:1d:4f:e3:2a:59:d9:93:
                    57:a7:22:7f:54:d6:f2:e5:68:92:fd:f7:a4:be:eb:
                    49:60:8b:4f:19:18:ea:83:2b:fe:c0:01:78:95:56:
                    f6:b1:ad:e0:3a:a3:25:12:94:53:6e:80:75:b2:9b:
                    30:7e:54:28:d7:93:8f:03:f7:9d:5f:72:74:4b:f0:
                    26:05:99:1d:35:f9:a9:4c:65:64:01:d1:d4:04:70:
                    5b:99:d5:35:e5:db:e1:ac:75:70:0f:63:38:18:af:
                    2d:06:d4:fb:49:d2:2e:5f:3a:de:15:20:9c:41:8c:
                    56:a3:59:52:e7:9e:ae:80:aa:10:16:70:48:77:15:
                    dd:f7:21:4b:b4:d0:fb:23:25:e0:cb:03:03:a8:28:
                    a2:bb:ea:70:55:8a:dd:cd:3e:9b:a4:5e:e1:c0:e5:
                    5f:a4:02:e9:2c:9b:b6:17:93:e9:84:ea:be:cb:6b:
                    a0:26:72:33:da:b1:ac:c3:0f:ad:7c:dc:22:38:8d:
                    35:86:17:5f:f7:ce:c7:3d:4c:e5:bb:67:f6:2c:c4:
                    79:6c:84:67:af:b3:a0:8f:0e:30:f6:02:93:01:3d:
                    e4:08:c0:a1:78:55:c4:fe:b0:0d:88:76:00:72:48:
                    59:95:1e:12:a4:01:99:2d:17:eb:2c:bb:a1:d0:bf:
                    6e:2f:b9:96:bd:aa:37:72:77:d3:6e:38:5f:90:e8:
                    4e:16:0a:66:57:4b:29:3f:74:7d:d7:88:85:f3:46:
                    aa:a8:17:17:9f:f6:11:cf:fd:49:f5:62:3b:0a:ce:
                    05:e4:fc:14:e5:16:de:39:1e:ac:e5:fe:69:7b:d8:
                    a6:b6:7a:d0:45:76:f9:aa:72:17:ed:36:95:dd:83:
                    fc:a3:61:66:ac:d9:40:b5:06:4e:02:12:4e:21:85:
                    f8:20:21:e3:f1:ad:1d:71:90:6d:df:9e:55:bc:90:
                    4e:2a:f7:45:53:13:ea:a8:7c:ea:e8:8d:21:aa:86:
                    62:53:5e:49:ea:86:c4:95:21:8e:3a:6e:fa:8e:c6:
                    35:46:68:c3:95:f5:97:db:7c:24:fa:aa:2a:af:ac:
                    ef:5c:ec:f8:51:ab:85:e9:02:8d:70:39:a4:8e:a4:
                    2e:9d:78:de:f4:4c:a2:8a:c6:be:db:f0:d5:9f:93:
                    65:7e:f2:75:fd:15:de:c8:47:7d:38:2a:5d:72:28:
                    5b:45:43:d5:72:73:15:30:f6:fd:45:48:21:59:83:
                    1a:6d:b5:1b:c1:46:cf:cb:ad:13:75:96:50:8d:75:
                    97:d9:a5:23:92:98:19:53:ed:b2:38:d7:cf:a8:af:
                    80:91:6b:db:b3:66:28:54:06:26:3a:53:ca:5f:18:
                    7f:f1:a5
                Exponent: 65537 (0x10001)
        X509v3 extensions:
            X509v3 Basic Constraints: 
                CA:FALSE
            Netscape Comment: 
                OpenSSL Generated Certificate
            X509v3 Subject Key Identifier: 
                90:92:19:86:ED:C6:65:69:BC:23:D8:2E:D1:A7:62:CC:CD:FC:00:13
            X509v3 Authority Key Identifier: 
                keyid:A8:A0:05:4A:37:5B:8B:EC:5C:46:69:FE:39:D5:50:60:89:C4:5A:53

    Signature Algorithm: sha384WithRSAEncryption
         2d:00:6a:48:28:34:72:69:1c:65:7b:b0:d2:15:2f:91:d8:08:
         32:2c:6c:b8:30:c2:e7:c9:bd:b8:da:99:1c:d2:53:a6:0f:b6:
         ee:47:15:98:4e:2d:0a:5f:3d:03:7f:11:d3:a1:4f:6e:88:79:
         67:1b:d2:94:b9:68:2f:bb:83:5c:e2:2d:38:34:5b:1c:44:21:
         db:c8:b1:2f:70:6f:e2:59:67:23:bf:d8:36:80:53:49:11:75:
         ea:2d:bf:16:c2:f2:fe:98:75:5f:ee:6e:22:79:9e:9c:fd:85:
         3b:10:ce:7b:87:9c:33:31:28:7b:9d:d0:9f:cc:8f:21:db:d0:
         91:17:83:5a:b2:7a:ac:98:0e:dc:01:a9:fc:56:2a:63:df:4c:
         7a:7b:39:65:88:43:87:06:1f:23:24:38:c9:cb:da:14:38:5f:
         31:47:de:5e:4d:29:80:e7:4b:43:15:12:54:19:4f:fb:65:30:
         46:5b:61:02:6f:b8:36:87:0e:76:57:de:f0:d5:2c:0a:af:8c:
         45:95:53:39:27:fe:c2:ee:f7:df:77:25:70:4a:b8:4e:60:12:
         7e:d4:06:36:56:f9:d7:53:64:bf:f4:9e:7a:39:7b:e0:df:0c:
         1f:83:a6:0e:c4:4b:ae:47:33:b1:c9:02:4a:e2:e1:bb:e3:02:
         d9:3e:03:b6:11:60:62:1c:17:a3:21:57:85:ca:bc:dc:b9:34:
         6d:94:57:9a:1f:18:a4:7a:05:16:4b:1d:12:95:90:0c:58:6b:
         4c:51:00:33:f9:99:57:6f:8f:20:91:ac:97:ca:f9:1f:e2:aa:
         c2:5f:56:ec:3a:7c:67:c3:38:42:ca:a2:b7:50:10:32:2a:65:
         b9:00:c8:0f:32:4c:73:23:e1:5d:fb:2d:80:72:0c:68:41:30:
         47:f9:da:50:cb:e1:a1:6f:09:6f:29:8c:d8:38:4a:d5:6c:6f:
         21:33:ef:8b:58:0e:d3:9d:33:a1:e5:1d:f1:dd:61:4d:4c:30:
         5c:5a:26:f8:4a:cb:59:ec:77:b4:47:fc:04:33:15:05:0e:5a:
         dc:8a:7a:6b:56:87:19:c4:a4:b3:17:9d:1d:ec:ee:7a:2c:ee:
         78:72:e0:24:50:0d:ab:91:d7:00:c4:27:7d:87:5d:34:bd:63:
         bc:f9:37:e5:8c:85:b3:7b:41:71:9f:89:e3:8a:68:dc:0d:03:
         02:93:c5:83:39:a7:d3:fc:9c:39:fc:28:93:27:a4:8f:f6:de:
         c3:f9:12:30:b2:61:02:fc:ef:5a:44:33:f1:e5:fe:42:b8:9a:
         9e:44:2a:94:b4:8d:9b:46:79:d7:98:e5:d7:e2:75:51:e3:2b:
         8b:55:fb:c1:47:96:b6:bc
-----BEGIN CERTIFICATE-----
MIIFRzCCAy+gAwIBAgIEEkgWPjANBgkqhkiG9w0BAQwFADAmMSQwIgYDVQQDFBtD
QTFfc2hhMzg0XzQwOTZfNjU1MzdfdjNfY2EwHhcNMjQxMTA4MTAyNTIzWhcNNDQx
MTAzMTAyNTIzWjAoMSYwJAYDVQQDDB1TUksxX3NoYTM4NF80MDk2XzY1NTM3X3Yz
X3VzcjCCAiIwDQYJKoZIhvcNAQEBBQADggIPADCCAgoCggIBAPgzZs8ryBAdT+Mq
WdmTV6cif1TW8uVokv33pL7rSWCLTxkY6oMr/sABeJVW9rGt4DqjJRKUU26AdbKb
MH5UKNeTjwP3nV9ydEvwJgWZHTX5qUxlZAHR1ARwW5nVNeXb4ax1cA9jOBivLQbU
+0nSLl863hUgnEGMVqNZUueeroCqEBZwSHcV3fchS7TQ+yMl4MsDA6goorvqcFWK
3c0+m6Re4cDlX6QC6SybtheT6YTqvstroCZyM9qxrMMPrXzcIjiNNYYXX/fOxz1M
5btn9izEeWyEZ6+zoI8OMPYCkwE95AjAoXhVxP6wDYh2AHJIWZUeEqQBmS0X6yy7
odC/bi+5lr2qN3J30244X5DoThYKZldLKT90fdeIhfNGqqgXF5/2Ec/9SfViOwrO
BeT8FOUW3jkerOX+aXvYprZ60EV2+apyF+02ld2D/KNhZqzZQLUGTgISTiGF+CAh
4/GtHXGQbd+eVbyQTir3RVMT6qh86uiNIaqGYlNeSeqGxJUhjjpu+o7GNUZow5X1
l9t8JPqqKq+s71zs+FGrhekCjXA5pI6kLp143vRMoorGvtvw1Z+TZX7ydf0V3shH
fTgqXXIoW0VD1XJzFTD2/UVIIVmDGm21G8FGz8utE3WWUI11l9mlI5KYGVPtsjjX
z6ivgJFr27NmKFQGJjpTyl8Yf/GlAgMBAAGjezB5MAkGA1UdEwQCMAAwLAYJYIZI
AYb4QgENBB8WHU9wZW5TU0wgR2VuZXJhdGVkIENlcnRpZmljYXRlMB0GA1UdDgQW
BBSQkhmG7cZlabwj2C7Rp2LMzfwAEzAfBgNVHSMEGDAWgBSooAVKN1uL7FxGaf45
1VBgicRaUzANBgkqhkiG9w0BAQwFAAOCAgEALQBqSCg0cmkcZXuw0hUvkdgIMixs
uDDC58m9uNqZHNJTpg+27kcVmE4tCl89A38R06FPboh5ZxvSlLloL7uDXOItODRb
HEQh28ixL3Bv4llnI7/YNoBTSRF16i2/FsLy/ph1X+5uInmenP2FOxDOe4ecMzEo
e53Qn8yPIdvQkReDWrJ6rJgO3AGp/FYqY99Mens5ZYhDhwYfIyQ4ycvaFDhfMUfe
Xk0pgOdLQxUSVBlP+2UwRlthAm+4NocOdlfe8NUsCq+MRZVTOSf+wu7333clcEq4
TmASftQGNlb511Nkv/Seejl74N8MH4OmDsRLrkczsckCSuLhu+MC2T4DthFgYhwX
oyFXhcq83Lk0bZRXmh8YpHoFFksdEpWQDFhrTFEAM/mZV2+PIJGsl8r5H+Kqwl9W
7Dp8Z8M4Qsqit1AQMipluQDIDzJMcyPhXfstgHIMaEEwR/naUMvhoW8JbymM2DhK
1WxvITPvi1gO050zoeUd8d1hTUwwXFom+ErLWex3tEf8BDMVBQ5a3Ip6a1aHGcSk
sxedHezueizueHLgJFANq5HXAMQnfYddNL1jvPk35YyFs3tBcZ+J44po3A0DApPF
gzmn0/ycOfwokyekj/bew/kSMLJhAvzvWkQz8eX+QriankQqlLSNm0Z515jl1+J1
UeMri1X7wUeWtrw=
-----END CERTIFICATE-----
