Certificate:
    Data:
        Version: 3 (0x2)
        Serial Number: 306714176 (0x12481640)
        Signature Algorithm: sha384WithRSAEncryption
        Issuer: CN=CA1_sha384_4096_65537_v3_ca
        Validity
            Not Before: Nov  8 10:25:23 2024 GMT
            Not After : Nov  3 10:25:23 2044 GMT
        Subject: CN=SRK3_sha384_4096_65537_v3_usr
        Subject Public Key Info:
            Public Key Algorithm: rsaEncryption
                RSA Public-Key: (4096 bit)
                Modulus:
                    00:cc:64:d8:e8:9e:5c:2f:7f:98:92:65:23:ea:57:
                    e3:3c:0d:fd:0f:c1:8d:6a:ed:66:02:6d:f9:ad:49:
                    95:99:46:2e:f6:ae:1d:97:1b:59:8a:8f:e4:c8:34:
                    bb:46:10:78:22:8c:42:13:3a:50:c1:ee:35:8d:c6:
                    b9:6e:2f:b5:03:8a:26:b5:8a:83:73:ab:72:ec:9c:
                    34:3c:1a:76:d0:09:02:bc:fd:67:a4:67:fa:fe:f6:
                    5a:01:7a:28:d5:9b:e0:4c:0b:ba:5d:1c:35:20:a6:
                    2d:ad:da:1b:a3:40:3d:81:98:e8:f4:e2:08:16:3e:
                    85:25:47:e0:14:09:aa:c5:c7:d4:9f:3b:e9:32:25:
                    1f:e5:c5:c3:34:90:52:f5:26:84:00:ef:99:a8:ce:
                    9f:8f:4d:8a:7c:47:53:01:22:85:7f:78:29:3c:43:
                    1b:79:ba:57:26:10:6a:d4:bb:41:15:b2:fd:94:69:
                    5d:84:15:1d:86:12:2c:34:4c:f9:44:2c:57:85:9d:
                    77:00:d2:51:89:bb:59:c6:76:4d:38:6d:54:f7:6b:
                    0a:4c:19:e6:ef:e2:88:7a:35:f1:e2:00:51:74:37:
                    35:94:33:0c:1e:c1:f2:cd:63:b4:4a:1a:b7:75:85:
                    fe:52:9f:1d:0f:3e:51:4e:c7:c3:aa:27:e7:95:86:
                    78:00:e8:9f:55:fb:97:4a:91:52:40:86:98:9d:2a:
                    fd:81:91:fe:d0:bd:c6:75:8c:7d:c9:04:ce:13:4b:
                    fa:85:e3:51:ee:99:3a:dc:44:7a:f5:d9:1b:8b:ae:
                    71:99:b6:bd:92:16:5d:c1:5e:f0:a9:e9:58:1a:83:
                    53:a3:72:26:88:d3:98:f4:cf:59:ce:44:18:1a:75:
                    a3:2a:b4:06:59:e6:e5:f9:d9:e0:01:cc:ba:a1:9d:
                    7d:fb:4e:56:1a:90:a1:5f:eb:bb:b8:7a:c9:dd:83:
                    8d:56:09:16:32:24:e8:95:e2:f9:e0:56:20:14:ba:
                    35:a5:f3:90:02:7c:c9:b3:d8:4f:4e:ec:60:c9:9c:
                    9c:97:79:47:1f:55:25:77:77:b3:b1:a1:60:38:8e:
                    44:ef:f5:31:f2:c9:69:0c:fd:35:bc:42:fb:04:b1:
                    be:ea:a7:c2:80:ed:e3:54:99:13:2d:2d:37:a0:5f:
                    c2:78:02:28:b2:b3:4c:a6:46:a1:11:9d:45:a2:2f:
                    d8:4d:c1:ad:f6:bf:12:bd:72:7c:06:db:34:59:25:
                    b0:3d:f7:c7:5d:61:e4:3b:ed:67:bd:ca:d6:71:5d:
                    10:d0:6b:5f:c6:55:6d:65:6a:61:41:99:1d:8e:99:
                    42:56:c1:dc:42:db:13:d4:71:0c:38:13:de:df:ec:
                    1a:01:f5
                Exponent: 65537 (0x10001)
        X509v3 extensions:
            X509v3 Basic Constraints: 
                CA:FALSE
            Netscape Comment: 
                OpenSSL Generated Certificate
            X509v3 Subject Key Identifier: 
                A0:AF:10:74:16:45:18:55:AF:C8:3D:57:4F:02:E6:A4:8C:11:E2:C0
            X509v3 Authority Key Identifier: 
                keyid:A8:A0:05:4A:37:5B:8B:EC:5C:46:69:FE:39:D5:50:60:89:C4:5A:53

    Signature Algorithm: sha384WithRSAEncryption
         a7:cc:36:63:4a:a7:54:2e:89:f1:09:e6:4e:53:f9:cb:46:b8:
         19:5d:1b:96:d6:af:55:f5:31:41:0b:c2:89:aa:00:44:4d:1f:
         46:2e:46:23:75:61:8d:75:ca:94:92:df:3c:9d:a2:f0:39:ee:
         ba:1e:8e:ee:3e:9f:25:64:2b:12:66:4e:bb:24:d9:8e:99:ba:
         c2:0e:b2:10:e3:da:ce:61:ce:1b:26:0a:0b:e3:6c:ee:b1:92:
         d8:21:b5:6b:a8:94:a8:60:2e:0d:00:f0:c6:90:77:bd:e6:bb:
         48:7f:76:22:18:52:39:c7:79:a3:38:ed:41:cf:50:9a:d3:7d:
         c5:47:58:6e:a2:ef:55:f5:80:ba:bd:e5:d0:0e:27:9e:eb:75:
         7c:34:b4:3b:3c:9c:d6:c2:b9:48:d5:6b:d8:49:b9:c2:c4:d2:
         91:44:b6:51:ac:54:c7:d4:73:2f:36:94:02:5a:ab:aa:74:fa:
         34:f0:f3:50:66:eb:6b:2f:b7:03:88:b3:79:99:12:42:35:d2:
         28:4f:c6:dd:f8:22:07:e1:00:94:6f:fd:c4:b3:bf:19:77:2b:
         50:98:d4:49:09:b7:bb:02:a1:6f:04:e1:51:bf:54:10:d6:fd:
         11:22:44:5f:90:7e:32:b6:b2:8f:b3:8c:9d:86:62:14:0e:ef:
         ee:5a:2a:61:4c:36:c7:c6:c4:d7:19:7c:00:ca:28:3c:bf:bb:
         a7:1f:04:0a:cf:46:29:c6:9b:51:39:43:6a:1a:45:aa:95:28:
         bc:21:93:15:2b:d3:4d:51:0a:a7:f1:b3:e1:20:c9:cc:c8:b4:
         48:bd:51:8b:be:89:b1:0a:f7:7d:6b:24:6a:62:0a:84:8b:fc:
         a7:9b:36:ff:fc:8b:df:53:d6:e2:2b:4b:b2:2a:1c:2c:86:1c:
         09:f5:b4:e8:03:ca:37:3d:42:df:42:45:bd:2f:b1:5f:d9:e5:
         d0:73:a9:1d:f9:c0:fb:67:2c:96:9e:55:6a:f3:b0:9e:31:4a:
         f9:47:49:90:53:3a:f4:b9:30:a1:1d:f6:69:f5:7a:17:7c:88:
         1b:79:fe:19:ad:40:55:82:b8:fd:34:c2:0c:16:6e:18:83:c8:
         c9:a5:2b:70:82:5f:f5:e3:67:7d:42:df:ad:fa:f5:d8:fc:66:
         81:16:25:11:fa:6e:b2:19:46:97:19:50:0d:11:78:01:bf:3c:
         d7:2a:56:8a:76:54:aa:ea:31:0b:a4:ab:9f:5e:2c:a2:68:2c:
         4e:48:56:a8:5b:98:0f:3b:75:f2:67:18:30:75:66:d5:b8:ef:
         eb:ba:3d:43:a2:f1:11:d9:c2:7b:27:0c:32:43:b7:62:1f:7d:
         40:89:58:1e:d3:bc:30:05
-----BEGIN CERTIFICATE-----
MIIFRzCCAy+gAwIBAgIEEkgWQDANBgkqhkiG9w0BAQwFADAmMSQwIgYDVQQDFBtD
QTFfc2hhMzg0XzQwOTZfNjU1MzdfdjNfY2EwHhcNMjQxMTA4MTAyNTIzWhcNNDQx
MTAzMTAyNTIzWjAoMSYwJAYDVQQDDB1TUkszX3NoYTM4NF80MDk2XzY1NTM3X3Yz
X3VzcjCCAiIwDQYJKoZIhvcNAQEBBQADggIPADCCAgoCggIBAMxk2OieXC9/mJJl
I+pX4zwN/Q/BjWrtZgJt+a1JlZlGLvauHZcbWYqP5Mg0u0YQeCKMQhM6UMHuNY3G
uW4vtQOKJrWKg3OrcuycNDwadtAJArz9Z6Rn+v72WgF6KNWb4EwLul0cNSCmLa3a
G6NAPYGY6PTiCBY+hSVH4BQJqsXH1J876TIlH+XFwzSQUvUmhADvmajOn49NinxH
UwEihX94KTxDG3m6VyYQatS7QRWy/ZRpXYQVHYYSLDRM+UQsV4WddwDSUYm7WcZ2
TThtVPdrCkwZ5u/iiHo18eIAUXQ3NZQzDB7B8s1jtEoat3WF/lKfHQ8+UU7Hw6on
55WGeADon1X7l0qRUkCGmJ0q/YGR/tC9xnWMfckEzhNL+oXjUe6ZOtxEevXZG4uu
cZm2vZIWXcFe8KnpWBqDU6NyJojTmPTPWc5EGBp1oyq0Blnm5fnZ4AHMuqGdfftO
VhqQoV/ru7h6yd2DjVYJFjIk6JXi+eBWIBS6NaXzkAJ8ybPYT07sYMmcnJd5Rx9V
JXd3s7GhYDiORO/1MfLJaQz9NbxC+wSxvuqnwoDt41SZEy0tN6BfwngCKLKzTKZG
oRGdRaIv2E3Brfa/Er1yfAbbNFklsD33x11h5DvtZ73K1nFdENBrX8ZVbWVqYUGZ
HY6ZQlbB3ELbE9RxDDgT3t/sGgH1AgMBAAGjezB5MAkGA1UdEwQCMAAwLAYJYIZI
AYb4QgENBB8WHU9wZW5TU0wgR2VuZXJhdGVkIENlcnRpZmljYXRlMB0GA1UdDgQW
BBSgrxB0FkUYVa/IPVdPAuakjBHiwDAfBgNVHSMEGDAWgBSooAVKN1uL7FxGaf45
1VBgicRaUzANBgkqhkiG9w0BAQwFAAOCAgEAp8w2Y0qnVC6J8QnmTlP5y0a4GV0b
ltavVfUxQQvCiaoARE0fRi5GI3VhjXXKlJLfPJ2i8Dnuuh6O7j6fJWQrEmZOuyTZ
jpm6wg6yEOPazmHOGyYKC+Ns7rGS2CG1a6iUqGAuDQDwxpB3vea7SH92IhhSOcd5
ozjtQc9QmtN9xUdYbqLvVfWAur3l0A4nnut1fDS0Ozyc1sK5SNVr2Em5wsTSkUS2
UaxUx9RzLzaUAlqrqnT6NPDzUGbray+3A4izeZkSQjXSKE/G3fgiB+EAlG/9xLO/
GXcrUJjUSQm3uwKhbwThUb9UENb9ESJEX5B+Mrayj7OMnYZiFA7v7loqYUw2x8bE
1xl8AMooPL+7px8ECs9GKcabUTlDahpFqpUovCGTFSvTTVEKp/Gz4SDJzMi0SL1R
i76JsQr3fWskamIKhIv8p5s2//yL31PW4itLsiocLIYcCfW06APKNz1C30JFvS+x
X9nl0HOpHfnA+2cslp5VavOwnjFK+UdJkFM69LkwoR32afV6F3yIG3n+Ga1AVYK4
/TTCDBZuGIPIyaUrcIJf9eNnfULfrfr12PxmgRYlEfpushlGlxlQDRF4Ab881ypW
inZUquoxC6Srn14somgsTkhWqFuYDzt18mcYMHVm1bjv67o9Q6LxEdnCeycMMkO3
Yh99QIlYHtO8MAU=
-----END CERTIFICATE-----
