Certificate:
    Data:
        Version: 3 (0x2)
        Serial Number: 306714177 (0x12481641)
        Signature Algorithm: sha384WithRSAEncryption
        Issuer: CN=CA1_sha384_4096_65537_v3_ca
        Validity
            Not Before: Nov  8 10:25:24 2024 GMT
            Not After : Nov  3 10:25:24 2044 GMT
        Subject: CN=SRK4_sha384_4096_65537_v3_usr
        Subject Public Key Info:
            Public Key Algorithm: rsaEncryption
                RSA Public-Key: (4096 bit)
                Modulus:
                    00:be:7d:57:f8:30:9e:76:dc:34:d2:d9:3c:06:3a:
                    ed:22:88:6f:bc:33:91:2a:95:f4:cb:09:af:b4:71:
                    74:4b:7c:2d:66:dd:1b:67:99:fe:4b:f0:4c:c4:6f:
                    cf:e6:a1:53:f6:5c:9d:3b:70:a7:87:58:d4:0f:2f:
                    37:d5:e5:19:e3:92:aa:8d:1f:83:b3:24:ac:69:29:
                    09:fa:97:8c:53:60:0b:7a:3f:93:40:2b:e8:8b:86:
                    bd:67:fa:fd:45:95:c9:65:5c:ec:28:12:93:16:95:
                    2a:1b:72:6b:1f:26:b2:e8:6e:1b:d1:fe:09:10:b5:
                    b0:a3:b4:ec:f7:43:6e:0f:eb:19:19:a6:22:91:25:
                    c1:3c:c8:65:2e:69:27:e2:86:69:5e:c4:a4:4d:93:
                    d6:68:b1:8e:b0:14:30:d6:fc:f6:c0:41:59:24:05:
                    5d:f9:3e:c0:75:05:d2:0e:b4:cc:a0:c0:7b:ed:a9:
                    61:d1:f6:36:29:bd:48:45:d9:f9:15:31:f9:6c:8f:
                    6d:e5:f7:b6:d4:30:25:84:90:ab:6a:b0:b1:bb:23:
                    8b:96:81:71:40:94:ca:e3:0e:4b:ee:74:fa:8d:5e:
                    8a:35:85:10:c0:bb:2f:80:89:e1:12:3b:4c:3b:3f:
                    2e:79:1c:fc:ac:76:d3:8f:3f:3c:eb:94:3f:61:ed:
                    64:70:de:61:63:1a:b2:00:2a:1b:2e:d6:94:a7:8d:
                    57:e6:79:0b:9d:39:26:6c:ad:d4:ce:20:4a:bf:f1:
                    6c:5b:b2:90:69:a1:92:56:85:47:93:43:d9:0a:b8:
                    13:98:86:85:23:0a:94:ec:d2:45:b1:8c:b8:e5:87:
                    b1:29:7a:57:43:9b:b7:72:fd:02:47:db:2a:90:cd:
                    b5:0e:4f:2b:01:0f:a5:1b:3a:d7:58:1a:be:91:fc:
                    39:7e:a4:91:ed:be:16:a6:52:ab:12:8c:ec:50:c4:
                    ef:5c:16:7e:7d:35:f4:75:ad:f8:32:26:1c:f7:a3:
                    cc:85:f6:b5:5f:b4:e6:cc:02:58:c7:bc:d2:b1:14:
                    17:92:1e:c2:f0:0d:0f:26:65:01:1c:8b:a6:d3:d0:
                    3d:28:e7:b5:44:cd:12:e2:10:a5:a1:bc:1f:7f:37:
                    3d:d9:60:6f:61:5f:a9:0f:2d:7d:7a:46:65:4d:f1:
                    ff:fb:78:42:32:c2:17:ee:51:69:04:ef:d3:b0:8d:
                    de:d8:e5:dc:2d:2f:37:26:62:c0:59:67:b6:1f:ce:
                    74:75:61:cc:62:09:55:03:e5:4b:10:99:9c:62:d1:
                    1a:7d:bd:cf:ff:bd:2e:b0:ba:75:65:e8:60:54:6d:
                    be:a4:d9:d9:cf:51:3e:3c:da:61:d8:31:ec:37:11:
                    32:e7:85
                Exponent: 65537 (0x10001)
        X509v3 extensions:
            X509v3 Basic Constraints: 
                CA:FALSE
            Netscape Comment: 
                OpenSSL Generated Certificate
            X509v3 Subject Key Identifier: 
                8E:0C:E1:26:8A:60:F2:34:62:4B:DB:1C:24:66:E6:88:D6:E4:35:8F
            X509v3 Authority Key Identifier: 
                keyid:A8:A0:05:4A:37:5B:8B:EC:5C:46:69:FE:39:D5:50:60:89:C4:5A:53

    Signature Algorithm: sha384WithRSAEncryption
         23:79:d0:09:d8:d7:74:3d:12:0a:10:e0:1e:38:e0:d2:21:68:
         11:dd:79:76:8a:e8:4c:0f:2e:18:4c:58:44:52:fe:a4:ab:9a:
         66:f2:f1:80:8e:47:37:56:d6:ea:13:2e:87:e0:31:de:67:53:
         96:de:62:2b:6f:5b:09:5c:d3:9e:93:c3:26:3f:ad:ed:5f:08:
         65:39:11:00:56:b5:e1:b6:b2:d5:d8:40:5d:9b:a2:e2:de:62:
         ff:d4:b0:1e:85:99:02:36:0b:fe:0f:ee:24:20:0a:71:54:d2:
         a8:95:d4:5c:58:46:bf:7c:14:37:d9:ed:64:7e:90:d7:07:c8:
         09:c4:17:c4:f5:f9:c4:f9:3b:bf:61:25:1c:62:ad:9a:16:00:
         74:21:83:df:bd:d3:71:8d:20:8f:25:d0:de:ac:2e:19:0a:80:
         46:d0:54:26:d7:74:e0:1e:db:64:0c:b5:19:85:e8:ae:01:cc:
         91:30:aa:eb:d5:01:2e:da:8c:21:94:16:18:0c:dd:5c:be:26:
         bc:8c:1c:fd:8c:36:4e:56:23:d1:c3:31:c6:af:e7:3f:1f:ba:
         66:1a:ff:8b:41:d3:ff:56:95:1d:41:44:bd:26:ed:ba:fa:7d:
         75:a1:fc:b6:e1:6e:66:8e:d4:5d:f3:36:2b:82:ac:da:2d:96:
         6f:c7:f2:be:98:61:14:fb:d8:e4:a4:9b:b3:c5:c5:cb:49:8e:
         47:96:04:0f:01:4d:ce:3c:71:c1:2a:76:71:f6:b1:3e:35:b0:
         8f:c6:80:96:3e:91:06:f1:59:f7:4c:27:80:ce:2b:f1:10:5e:
         c7:14:18:04:b8:30:27:65:41:ff:fb:59:c6:2a:67:bb:9f:39:
         f8:37:1e:19:03:38:78:4e:ee:65:89:01:94:d9:b9:62:16:35:
         5b:52:e2:47:64:ed:35:3d:7c:39:07:4f:fc:f2:83:b0:7c:16:
         1d:ef:da:59:b1:e7:95:08:b7:68:fb:8a:79:0c:57:77:cf:92:
         7d:ba:eb:6a:25:53:fc:15:e3:c4:19:8b:ea:f6:b5:20:8b:85:
         ce:d6:2d:8c:fa:0b:bf:2d:5f:47:36:16:e2:bc:d9:b7:9a:6e:
         6a:33:3e:c4:2b:8c:90:16:03:ed:68:4b:81:83:23:60:dd:e1:
         64:e9:8b:d1:78:01:34:aa:29:eb:da:e2:66:0f:64:90:2e:40:
         b9:1c:98:ab:a0:9d:18:db:a3:c0:12:cd:a6:5e:4e:b5:40:82:
         40:81:cc:8b:e5:ed:55:d3:f6:70:59:fc:5c:ba:61:3c:87:ca:
         00:f2:4f:fb:c0:4f:30:26:40:be:07:50:ad:19:bb:92:57:3d:
         a0:0d:76:ba:53:c6:06:9e
-----BEGIN CERTIFICATE-----
MIIFRzCCAy+gAwIBAgIEEkgWQTANBgkqhkiG9w0BAQwFADAmMSQwIgYDVQQDFBtD
QTFfc2hhMzg0XzQwOTZfNjU1MzdfdjNfY2EwHhcNMjQxMTA4MTAyNTI0WhcNNDQx
MTAzMTAyNTI0WjAoMSYwJAYDVQQDDB1TUks0X3NoYTM4NF80MDk2XzY1NTM3X3Yz
X3VzcjCCAiIwDQYJKoZIhvcNAQEBBQADggIPADCCAgoCggIBAL59V/gwnnbcNNLZ
PAY67SKIb7wzkSqV9MsJr7RxdEt8LWbdG2eZ/kvwTMRvz+ahU/ZcnTtwp4dY1A8v
N9XlGeOSqo0fg7MkrGkpCfqXjFNgC3o/k0Ar6IuGvWf6/UWVyWVc7CgSkxaVKhty
ax8msuhuG9H+CRC1sKO07PdDbg/rGRmmIpElwTzIZS5pJ+KGaV7EpE2T1mixjrAU
MNb89sBBWSQFXfk+wHUF0g60zKDAe+2pYdH2Nim9SEXZ+RUx+WyPbeX3ttQwJYSQ
q2qwsbsji5aBcUCUyuMOS+50+o1eijWFEMC7L4CJ4RI7TDs/Lnkc/Kx2048/POuU
P2HtZHDeYWMasgAqGy7WlKeNV+Z5C505Jmyt1M4gSr/xbFuykGmhklaFR5ND2Qq4
E5iGhSMKlOzSRbGMuOWHsSl6V0Obt3L9AkfbKpDNtQ5PKwEPpRs611gavpH8OX6k
ke2+FqZSqxKM7FDE71wWfn019HWt+DImHPejzIX2tV+05swCWMe80rEUF5IewvAN
DyZlARyLptPQPSjntUTNEuIQpaG8H383Pdlgb2FfqQ8tfXpGZU3x//t4QjLCF+5R
aQTv07CN3tjl3C0vNyZiwFlnth/OdHVhzGIJVQPlSxCZnGLRGn29z/+9LrC6dWXo
YFRtvqTZ2c9RPjzaYdgx7DcRMueFAgMBAAGjezB5MAkGA1UdEwQCMAAwLAYJYIZI
AYb4QgENBB8WHU9wZW5TU0wgR2VuZXJhdGVkIENlcnRpZmljYXRlMB0GA1UdDgQW
BBSODOEmimDyNGJL2xwkZuaI1uQ1jzAfBgNVHSMEGDAWgBSooAVKN1uL7FxGaf45
1VBgicRaUzANBgkqhkiG9w0BAQwFAAOCAgEAI3nQCdjXdD0SChDgHjjg0iFoEd15
doroTA8uGExYRFL+pKuaZvLxgI5HN1bW6hMuh+Ax3mdTlt5iK29bCVzTnpPDJj+t
7V8IZTkRAFa14bay1dhAXZui4t5i/9SwHoWZAjYL/g/uJCAKcVTSqJXUXFhGv3wU
N9ntZH6Q1wfICcQXxPX5xPk7v2ElHGKtmhYAdCGD373TcY0gjyXQ3qwuGQqARtBU
Jtd04B7bZAy1GYXorgHMkTCq69UBLtqMIZQWGAzdXL4mvIwc/Yw2TlYj0cMxxq/n
Px+6Zhr/i0HT/1aVHUFEvSbtuvp9daH8tuFuZo7UXfM2K4Ks2i2Wb8fyvphhFPvY
5KSbs8XFy0mOR5YEDwFNzjxxwSp2cfaxPjWwj8aAlj6RBvFZ90wngM4r8RBexxQY
BLgwJ2VB//tZxipnu585+DceGQM4eE7uZYkBlNm5YhY1W1LiR2TtNT18OQdP/PKD
sHwWHe/aWbHnlQi3aPuKeQxXd8+SfbrraiVT/BXjxBmL6va1IIuFztYtjPoLvy1f
RzYW4rzZt5puajM+xCuMkBYD7WhLgYMjYN3hZOmL0XgBNKop69riZg9kkC5AuRyY
q6CdGNujwBLNpl5OtUCCQIHMi+XtVdP2cFn8XLphPIfKAPJP+8BPMCZAvgdQrRm7
klc9oA12ulPGBp4=
-----END CERTIFICATE-----
